target datalayout = "e-m:e-p270:32:32-p271:32:32-p272:64:64-i64:64-i128:128-f80:128-n8:16:32:64-S128"
target triple = "x86_64-pc-linux-gnu"

%struct.conmgr_callback_args_t = type { ptr, i32 }

@.str.49 = private unnamed_addr constant [26 x i8] c"Caught SIGUSR1. Ignoring.\00", align 1

; Function Attrs: nounwind uwtable
define internal void @_on_sigusr1(ptr %0, i32 %1, ptr noundef %2) #0 {
  %4 = alloca %struct.conmgr_callback_args_t, align 8
  %5 = alloca ptr, align 8
  %6 = getelementptr inbounds nuw { ptr, i32 }, ptr %4, i32 0, i32 0
  store ptr %0, ptr %6, align 8
  %7 = getelementptr inbounds nuw { ptr, i32 }, ptr %4, i32 0, i32 1
  store i32 %1, ptr %7, align 8
  store ptr %2, ptr %5, align 8
  br label %8

8:                                                ; preds = %3
  br label %9

9:                                                ; preds = %8
  %10 = call i32 @get_log_level()
  %11 = icmp sge i32 %10, 9
  br i1 %11, label %12, label %13

12:                                               ; preds = %9
  call void (i32, ptr, ...) @log_var(i32 noundef 9, ptr noundef @.str.49)
  br label %13

13:                                               ; preds = %12, %9
  br label %14

14:                                               ; preds = %13
  br label %15

15:                                               ; preds = %14
  ret void
}